target datalayout = "e-m:e-p270:32:32-p271:32:32-p272:64:64-i64:64-i128:128-f80:128-n8:16:32:64-S128"
target triple = "x86_64-unknown-linux-gnu"

%class.sls_engine = type { ptr, %"class.sls_engine::stats", %class.mpz_manager, %class.powers, %class.mpz, %class.mpz, %class.mpz, i8, %class.bv_util, %class.sls_tracker, %class.sls_evaluator, %class.ptr_vector.25, i32, i32, i32, i32, i32, i32, i32, i32, i32, i32, i32, i32, i32, i32 }
%"class.sls_engine::stats" = type { i32, [4 x i8], %class.stopwatch, i32, i32, i32, i32, i32, i32, i32, [4 x i8] }
%class.stopwatch = type <{ %"class.std::chrono::time_point", %"class.std::chrono::duration", i8, [7 x i8] }>
%"class.std::chrono::time_point" = type { %"class.std::chrono::duration" }
%"class.std::chrono::duration" = type { i64 }
%class.mpz_manager = type { %class.small_object_allocator, %"class.std::recursive_mutex", %class.mpn_manager, i32, %class.mpz, %class.mpz }
%class.small_object_allocator = type { [32 x ptr], [32 x ptr], i64 }
%"class.std::recursive_mutex" = type { %"class.std::__recursive_mutex_base" }
%"class.std::__recursive_mutex_base" = type { %union.pthread_mutex_t }
%union.pthread_mutex_t = type { %struct.__pthread_mutex_s }
%struct.__pthread_mutex_s = type { i32, i32, i32, i32, i32, i16, i16, %struct.__pthread_internal_list }
%struct.__pthread_internal_list = type { ptr, ptr }
%class.mpn_manager = type { i8 }
%class.powers = type { %class.u_map, ptr }
%class.u_map = type { %class.map }
%class.map = type { %class.table2map }
%class.table2map = type { %class.core_hashtable }
%class.core_hashtable = type <{ ptr, i32, i32, i32, [4 x i8] }>
%class.mpz = type { i32, i8, ptr }
%class.bv_util = type { %class.bv_recognizers, ptr, ptr }
%class.bv_recognizers = type { i32 }
%class.sls_tracker = type { ptr, ptr, ptr, ptr, %class.random_gen, i32, i32, %class.mpz, %class.mpz, %class.mpz, %class.obj_hashtable, %class.obj_map, %class.obj_map.4, %class.obj_map.9, %class.ptr_vector, %class.ptr_vector, %class.obj_map.14, i32, i32, i32, double, i32, double, double, i32, double, i32, [4 x i8], %class.obj_map.19, ptr, i32, [4 x i8], %class.obj_map.19, double, %class.obj_hashtable }
%class.random_gen = type { i32 }
%class.obj_map = type { %class.core_hashtable.2 }
%class.core_hashtable.2 = type <{ ptr, i32, i32, i32, [4 x i8] }>
%class.obj_map.4 = type { %class.core_hashtable.5 }
%class.core_hashtable.5 = type <{ ptr, i32, i32, i32, [4 x i8] }>
%class.obj_map.9 = type { %class.core_hashtable.10 }
%class.core_hashtable.10 = type <{ ptr, i32, i32, i32, [4 x i8] }>
%class.ptr_vector = type { %class.vector }
%class.vector = type { ptr }
%class.obj_map.14 = type { %class.core_hashtable.15 }
%class.core_hashtable.15 = type <{ ptr, i32, i32, i32, [4 x i8] }>
%class.obj_map.19 = type { %class.core_hashtable.20 }
%class.core_hashtable.20 = type <{ ptr, i32, i32, i32, [4 x i8] }>
%class.obj_hashtable = type { %class.core_hashtable.base.1, [4 x i8] }
%class.core_hashtable.base.1 = type <{ ptr, i32, i32, i32 }>
%class.sls_evaluator = type { ptr, ptr, i32, i32, ptr, ptr, %class.mpz, %class.mpz, %class.mpz, ptr, %class.ref_buffer, %class.vector.24, %class.vector.24 }
%class.ref_buffer = type { %class.ref_buffer_core }
%class.ref_buffer_core = type { %class.ref_manager_wrapper, %class.ptr_buffer }
%class.ref_manager_wrapper = type { ptr }
%class.ptr_buffer = type { %class.buffer }
%class.buffer = type { ptr, i32, i32, [16 x %"union.std::aligned_storage<8, 8>::type"] }
%"union.std::aligned_storage<8, 8>::type" = type { [8 x i8] }
%class.vector.24 = type { ptr }
%class.ptr_vector.25 = type { %class.vector.26 }
%class.vector.26 = type { ptr }

; Function Attrs: mustprogress nounwind uwtable
define linkonce_odr hidden noundef zeroext i1 @_ZN11mpz_managerILb0EE8is_smallERK3mpz(ptr noundef nonnull align 8 dereferenceable(16) %a) #5 comdat align 2 {
entry:
  %a.addr = alloca ptr, align 8
  store ptr %a, ptr %a.addr, align 8
  %0 = load ptr, ptr %a.addr, align 8
  %m_kind = getelementptr inbounds %class.mpz, ptr %0, i32 0, i32 1
  %bf.load = load i8, ptr %m_kind, align 4
  %bf.clear = and i8 %bf.load, 1
  %bf.cast = zext i8 %bf.clear to i32
  %cmp = icmp eq i32 %bf.cast, 0
  ret i1 %cmp
}

; Function Attrs: mustprogress uwtable
define linkonce_odr hidden void @_ZN11mpz_managerILb0EE3delER3mpz(ptr noundef nonnull align 8 dereferenceable(600) %this, ptr noundef nonnull align 8 dereferenceable(16) %a) #4 comdat align 2 {
entry:
  %this.addr = alloca ptr, align 8
  %a.addr = alloca ptr, align 8
  store ptr %this, ptr %this.addr, align 8
  store ptr %a, ptr %a.addr, align 8
  %this1 = load ptr, ptr %this.addr, align 8
  %0 = load ptr, ptr %a.addr, align 8
  call void @_ZN11mpz_managerILb0EE3delEPS0_R3mpz(ptr noundef %this1, ptr noundef nonnull align 8 dereferenceable(16) %0)
  ret void
}

; Function Attrs: mustprogress uwtable
define linkonce_odr hidden void @_ZN11mpz_managerILb0EE3setER3mpzRKS1_(ptr noundef nonnull align 8 dereferenceable(600) %this, ptr noundef nonnull align 8 dereferenceable(16) %target, ptr noundef nonnull align 8 dereferenceable(16) %source) #4 comdat align 2 {
entry:
  %this.addr = alloca ptr, align 8
  %target.addr = alloca ptr, align 8
  %source.addr = alloca ptr, align 8
  store ptr %this, ptr %this.addr, align 8
  store ptr %target, ptr %target.addr, align 8
  store ptr %source, ptr %source.addr, align 8
  %this1 = load ptr, ptr %this.addr, align 8
  %0 = load ptr, ptr %source.addr, align 8
  %call = call noundef zeroext i1 @_ZN11mpz_managerILb0EE8is_smallERK3mpz(ptr noundef nonnull align 8 dereferenceable(16) %0)
  br i1 %call, label %if.then, label %if.else

if.then:                                          ; preds = %entry
  %1 = load ptr, ptr %source.addr, align 8
  %m_val = getelementptr inbounds %class.mpz, ptr %1, i32 0, i32 0
  %2 = load i32, ptr %m_val, align 8
  %3 = load ptr, ptr %target.addr, align 8
  %m_val2 = getelementptr inbounds %class.mpz, ptr %3, i32 0, i32 0
  store i32 %2, ptr %m_val2, align 8
  %4 = load ptr, ptr %target.addr, align 8
  %m_kind = getelementptr inbounds %class.mpz, ptr %4, i32 0, i32 1
  %bf.load = load i8, ptr %m_kind, align 4
  %bf.clear = and i8 %bf.load, -2
  %bf.set = or i8 %bf.clear, 0
  store i8 %bf.set, ptr %m_kind, align 4
  br label %if.end

if.else:                                          ; preds = %entry
  %5 = load ptr, ptr %target.addr, align 8
  %6 = load ptr, ptr %source.addr, align 8
  call void @_ZN11mpz_managerILb0EE7big_setER3mpzRKS1_(ptr noundef nonnull align 8 dereferenceable(600) %this1, ptr noundef nonnull align 8 dereferenceable(16) %5, ptr noundef nonnull align 8 dereferenceable(16) %6)
  br label %if.end

if.end:                                           ; preds = %if.else, %if.then
  ret void
}

; Function Attrs: mustprogress nounwind uwtable
define linkonce_odr hidden void @_ZN3mpzC2Ev(ptr noundef nonnull align 8 dereferenceable(16) %this) unnamed_addr #5 comdat align 2 {
entry:
  %this.addr = alloca ptr, align 8
  store ptr %this, ptr %this.addr, align 8
  %this1 = load ptr, ptr %this.addr, align 8
  %m_val = getelementptr inbounds %class.mpz, ptr %this1, i32 0, i32 0
  store i32 0, ptr %m_val, align 8
  %m_kind = getelementptr inbounds %class.mpz, ptr %this1, i32 0, i32 1
  %bf.load = load i8, ptr %m_kind, align 4
  %bf.clear = and i8 %bf.load, -2
  %bf.set = or i8 %bf.clear, 0
  store i8 %bf.set, ptr %m_kind, align 4
  %m_owner = getelementptr inbounds %class.mpz, ptr %this1, i32 0, i32 1
  %bf.load2 = load i8, ptr %m_owner, align 4
  %bf.clear3 = and i8 %bf.load2, -3
  %bf.set4 = or i8 %bf.clear3, 0
  store i8 %bf.set4, ptr %m_owner, align 4
  %m_ptr = getelementptr inbounds %class.mpz, ptr %this1, i32 0, i32 2
  store ptr null, ptr %m_ptr, align 8
  ret void
}

; Function Attrs: mustprogress uwtable
define hidden void @_ZN10sls_engine6mk_addEjRK3mpzRS0_S3_(ptr noundef nonnull align 8 dereferenceable(1512) %this, i32 noundef %bv_sz, ptr noundef nonnull align 8 dereferenceable(16) %old_value, ptr noundef nonnull align 8 dereferenceable(16) %add_value, ptr noundef nonnull align 8 dereferenceable(16) %result) #4 align 2 {
entry:
  %this.addr = alloca ptr, align 8
  %bv_sz.addr = alloca i32, align 4
  %old_value.addr = alloca ptr, align 8
  %add_value.addr = alloca ptr, align 8
  %result.addr = alloca ptr, align 8
  %temp = alloca %class.mpz, align 8
  %mask = alloca %class.mpz, align 8
  %mask2 = alloca %class.mpz, align 8
  store ptr %this, ptr %this.addr, align 8
  store i32 %bv_sz, ptr %bv_sz.addr, align 4
  store ptr %old_value, ptr %old_value.addr, align 8
  store ptr %add_value, ptr %add_value.addr, align 8
  store ptr %result, ptr %result.addr, align 8
  %this1 = load ptr, ptr %this.addr, align 8
  call void @_ZN3mpzC2Ev(ptr noundef nonnull align 8 dereferenceable(16) %temp)
  call void @_ZN3mpzC2Ev(ptr noundef nonnull align 8 dereferenceable(16) %mask)
  call void @_ZN3mpzC2Ev(ptr noundef nonnull align 8 dereferenceable(16) %mask2)
  %m_mpz_manager = getelementptr inbounds %class.sls_engine, ptr %this1, i32 0, i32 2
  %0 = load ptr, ptr %old_value.addr, align 8
  %1 = load ptr, ptr %add_value.addr, align 8
  call void @_ZN11mpz_managerILb0EE3addERK3mpzS3_RS1_(ptr noundef nonnull align 8 dereferenceable(600) %m_mpz_manager, ptr noundef nonnull align 8 dereferenceable(16) %0, ptr noundef nonnull align 8 dereferenceable(16) %1, ptr noundef nonnull align 8 dereferenceable(16) %temp)
  %m_mpz_manager2 = getelementptr inbounds %class.sls_engine, ptr %this1, i32 0, i32 2
  %m_powers = getelementptr inbounds %class.sls_engine, ptr %this1, i32 0, i32 3
  %2 = load i32, ptr %bv_sz.addr, align 4
  %call = call noundef nonnull align 8 dereferenceable(16) ptr @_ZN6powersclEj(ptr noundef nonnull align 8 dereferenceable(32) %m_powers, i32 noundef %2)
  call void @_ZN11mpz_managerILb0EE3setER3mpzRKS1_(ptr noundef nonnull align 8 dereferenceable(600) %m_mpz_manager2, ptr noundef nonnull align 8 dereferenceable(16) %mask, ptr noundef nonnull align 8 dereferenceable(16) %call)
  %m_mpz_manager3 = getelementptr inbounds %class.sls_engine, ptr %this1, i32 0, i32 2
  %3 = load i32, ptr %bv_sz.addr, align 4
  call void @_ZN11mpz_managerILb0EE11bitwise_notEjRK3mpzRS1_(ptr noundef nonnull align 8 dereferenceable(600) %m_mpz_manager3, i32 noundef %3, ptr noundef nonnull align 8 dereferenceable(16) %mask, ptr noundef nonnull align 8 dereferenceable(16) %mask2)
  %m_mpz_manager4 = getelementptr inbounds %class.sls_engine, ptr %this1, i32 0, i32 2
  %4 = load ptr, ptr %result.addr, align 8
  call void @_ZN11mpz_managerILb0EE11bitwise_andERK3mpzS3_RS1_(ptr noundef nonnull align 8 dereferenceable(600) %m_mpz_manager4, ptr noundef nonnull align 8 dereferenceable(16) %temp, ptr noundef nonnull align 8 dereferenceable(16) %mask2, ptr noundef nonnull align 8 dereferenceable(16) %4)
  %m_mpz_manager5 = getelementptr inbounds %class.sls_engine, ptr %this1, i32 0, i32 2
  call void @_ZN11mpz_managerILb0EE3delER3mpz(ptr noundef nonnull align 8 dereferenceable(600) %m_mpz_manager5, ptr noundef nonnull align 8 dereferenceable(16) %temp)
  %m_mpz_manager6 = getelementptr inbounds %class.sls_engine, ptr %this1, i32 0, i32 2
  call void @_ZN11mpz_managerILb0EE3delER3mpz(ptr noundef nonnull align 8 dereferenceable(600) %m_mpz_manager6, ptr noundef nonnull align 8 dereferenceable(16) %mask)
  %m_mpz_manager7 = getelementptr inbounds %class.sls_engine, ptr %this1, i32 0, i32 2
  call void @_ZN11mpz_managerILb0EE3delER3mpz(ptr noundef nonnull align 8 dereferenceable(600) %m_mpz_manager7, ptr noundef nonnull align 8 dereferenceable(16) %mask2)
  ret void
}