; Function Attrs: mustprogress uwtable
define hidden void @_ZN10sls_engine6mk_addEjRK3mpzRS0_S3_(ptr noundef nonnull align 8 dereferenceable(1512) %this, i32 noundef %bv_sz, ptr noundef nonnull align 8 dereferenceable(16) %old_value, ptr noundef nonnull align 8 dereferenceable(16) %add_value, ptr noundef nonnull align 8 dereferenceable(16) %result) local_unnamed_addr #3 align 2 {
entry:
  %temp = alloca %class.mpz, align 8
  %mask = alloca %class.mpz, align 8
  %mask2 = alloca %class.mpz, align 8
  store i32 0, ptr %temp, align 8
  %m_kind.i = getelementptr inbounds i8, ptr %temp, i64 4
  store i8 0, ptr %m_kind.i, align 4
  %m_ptr.i = getelementptr inbounds i8, ptr %temp, i64 8
  store ptr null, ptr %m_ptr.i, align 8
  store i32 0, ptr %mask, align 8
  %m_kind.i2 = getelementptr inbounds i8, ptr %mask, i64 4
  store i8 0, ptr %m_kind.i2, align 4
  %m_ptr.i5 = getelementptr inbounds i8, ptr %mask, i64 8
  store ptr null, ptr %m_ptr.i5, align 8
  store i32 0, ptr %mask2, align 8
  %m_kind.i6 = getelementptr inbounds i8, ptr %mask2, i64 4
  store i8 0, ptr %m_kind.i6, align 4
  %m_ptr.i9 = getelementptr inbounds i8, ptr %mask2, i64 8
  store ptr null, ptr %m_ptr.i9, align 8
  %m_mpz_manager = getelementptr inbounds i8, ptr %this, i64 72
  call void @_ZN11mpz_managerILb0EE3addERK3mpzS3_RS1_(ptr noundef nonnull align 8 dereferenceable(600) %m_mpz_manager, ptr noundef nonnull align 8 dereferenceable(16) %old_value, ptr noundef nonnull align 8 dereferenceable(16) %add_value, ptr noundef nonnull align 8 dereferenceable(16) %temp)
  %m_powers = getelementptr inbounds i8, ptr %this, i64 672
  %call = call noundef nonnull align 8 dereferenceable(16) ptr @_ZN6powersclEj(ptr noundef nonnull align 8 dereferenceable(32) %m_powers, i32 noundef %bv_sz)
  %m_kind.i.i = getelementptr inbounds i8, ptr %call, i64 4
  %bf.load.i.i = load i8, ptr %m_kind.i.i, align 4
  %bf.clear.i.i = and i8 %bf.load.i.i, 1
  %cmp.i.i = icmp eq i8 %bf.clear.i.i, 0
  br i1 %cmp.i.i, label %if.then.i, label %if.else.i

if.then.i:                                        ; preds = %entry
  %0 = load i32, ptr %call, align 8
  store i32 %0, ptr %mask, align 8
  store i8 0, ptr %m_kind.i2, align 4
  br label %_ZN11mpz_managerILb0EE3setER3mpzRKS1_.exit

if.else.i:                                        ; preds = %entry
  call void @_ZN11mpz_managerILb0EE7big_setER3mpzRKS1_(ptr noundef nonnull align 8 dereferenceable(600) %m_mpz_manager, ptr noundef nonnull align 8 dereferenceable(16) %mask, ptr noundef nonnull align 8 dereferenceable(16) %call)
  br label %_ZN11mpz_managerILb0EE3setER3mpzRKS1_.exit

_ZN11mpz_managerILb0EE3setER3mpzRKS1_.exit:       ; preds = %if.then.i, %if.else.i
  call void @_ZN11mpz_managerILb0EE11bitwise_notEjRK3mpzRS1_(ptr noundef nonnull align 8 dereferenceable(600) %m_mpz_manager, i32 noundef %bv_sz, ptr noundef nonnull align 8 dereferenceable(16) %mask, ptr noundef nonnull align 8 dereferenceable(16) %mask2)
  call void @_ZN11mpz_managerILb0EE11bitwise_andERK3mpzS3_RS1_(ptr noundef nonnull align 8 dereferenceable(600) %m_mpz_manager, ptr noundef nonnull align 8 dereferenceable(16) %temp, ptr noundef nonnull align 8 dereferenceable(16) %mask2, ptr noundef nonnull align 8 dereferenceable(16) %result)
  call void @_ZN11mpz_managerILb0EE3delEPS0_R3mpz(ptr noundef nonnull %m_mpz_manager, ptr noundef nonnull align 8 dereferenceable(16) %temp)
  call void @_ZN11mpz_managerILb0EE3delEPS0_R3mpz(ptr noundef nonnull %m_mpz_manager, ptr noundef nonnull align 8 dereferenceable(16) %mask)
  call void @_ZN11mpz_managerILb0EE3delEPS0_R3mpz(ptr noundef nonnull %m_mpz_manager, ptr noundef nonnull align 8 dereferenceable(16) %mask2)
  ret void
}